ccopy_reg
_reconstructor
p0
(cgoogle.oauth2.credentials
Credentials
p1
c__builtin__
object
p2
Ntp3
Rp4
(dp5
S'_token_uri'
p6
Vhttps://oauth2.googleapis.com/token
p7
sS'_client_secret'
p8
Vn0ZnGJMyMKdN0AG9Qj1WBsRH
p9
sS'_id_token'
p10
NsS'token'
p11
Vya29.a0Ae4lvC2CeaXZKi2fujBdlIGCuRjkJwsjbjj3gTrdsDX-IaVRbsj4Wg53Xhqfd4ush4Pd2l5ExCwE4cWV_VontdJuph4EuaFCyZSfw8brpfQLaS3J2g2wL_qG4sjMeIOcmkxzwkMOrZh9K6nC8WOuRc0F0HjNHUpEWRY
p12
sS'_refresh_token'
p13
V1//0gGnrLDtZMfZ1CgYIARAAGBASNwF-L9Ir6zS3TyAD3WhaGY5gju0Co0193gqS8aPB5H59PG4ZInKP_OuhmnabqTiyKXM0S7NnVJE
p14
sS'_scopes'
p15
(lp16
S'https://www.googleapis.com/auth/drive'
p17
asS'_client_id'
p18
V773678613616-25l3pbk72vcbamd1lo0vduofbqh5hfu2.apps.googleusercontent.com
p19
sS'expiry'
p20
cdatetime
datetime
p21
(S'\x07\xe4\x04\x1b\x08&/\x01\x19@'
p22
tp23
Rp24
sb.